; Function Attrs: mustprogress uwtable
define dso_local noundef nonnull align 8 dereferenceable(120) ptr @_ZN4Luau15SubtypingResult12withBothPathENS_8TypePath4PathE(ptr noundef nonnull returned align 8 dereferenceable(120) %0, ptr noundef nonnull %1) local_unnamed_addr #4 align 2 personality ptr @__gxx_personality_v0 {
  %3 = alloca %"struct.Luau::TypePath::Path", align 8
  %4 = alloca %"struct.Luau::TypePath::Path", align 8
  call void @_ZNSt6vectorIN4Luau7VariantIJNS0_8TypePath8PropertyENS2_5IndexENS2_9TypeFieldENS2_9PackFieldENS2_9ReductionEEEESaIS8_EEC2ERKSA_(ptr noundef nonnull align 8 dereferenceable(24) %3, ptr noundef nonnull align 8 dereferenceable(24) %1)
  %5 = invoke noundef nonnull align 8 dereferenceable(120) ptr @_ZN4Luau15SubtypingResult11withSubPathENS_8TypePath4PathE(ptr noundef nonnull align 8 dereferenceable(120) %0, ptr noundef nonnull %3)
          to label %6 unwind label %47

6:                                                ; preds = %2
  invoke void @_ZNSt6vectorIN4Luau7VariantIJNS0_8TypePath8PropertyENS2_5IndexENS2_9TypeFieldENS2_9PackFieldENS2_9ReductionEEEESaIS8_EEC2ERKSA_(ptr noundef nonnull align 8 dereferenceable(24) %4, ptr noundef nonnull align 8 dereferenceable(24) %1)
          to label %_ZN4Luau8TypePath4PathC2ERKS1_.exit unwind label %47

_ZN4Luau8TypePath4PathC2ERKS1_.exit:              ; preds = %6
  %7 = invoke noundef nonnull align 8 dereferenceable(120) ptr @_ZN4Luau15SubtypingResult13withSuperPathENS_8TypePath4PathE(ptr noundef nonnull align 8 dereferenceable(120) %0, ptr noundef nonnull %4)
          to label %8 unwind label %49

8:                                                ; preds = %_ZN4Luau8TypePath4PathC2ERKS1_.exit
  %9 = load ptr, ptr %4, align 8, !tbaa !8
  %10 = getelementptr inbounds nuw i8, ptr %4, i64 8
  %11 = load ptr, ptr %10, align 8, !tbaa !12
  %.not4.i.i.i.i.i = icmp eq ptr %9, %11
  br i1 %.not4.i.i.i.i.i, label %_ZSt8_DestroyIPN4Luau7VariantIJNS0_8TypePath8PropertyENS2_5IndexENS2_9TypeFieldENS2_9PackFieldENS2_9ReductionEEEES8_EvT_SA_RSaIT0_E.exit.i.i, label %.lr.ph.i.i.i.i.i

.lr.ph.i.i.i.i.i:                                 ; preds = %8, %_ZSt8_DestroyIN4Luau7VariantIJNS0_8TypePath8PropertyENS2_5IndexENS2_9TypeFieldENS2_9PackFieldENS2_9ReductionEEEEEvPT_.exit.i.i.i.i.i
  %.05.i.i.i.i.i = phi ptr [ %20, %_ZSt8_DestroyIN4Luau7VariantIJNS0_8TypePath8PropertyENS2_5IndexENS2_9TypeFieldENS2_9PackFieldENS2_9ReductionEEEEEvPT_.exit.i.i.i.i.i ], [ %9, %8 ]
  %12 = load i32, ptr %.05.i.i.i.i.i, align 8, !tbaa !13
  %13 = sext i32 %12 to i64
  %14 = getelementptr inbounds [5 x ptr], ptr @_ZN4Luau7VariantIJNS_8TypePath8PropertyENS1_5IndexENS1_9TypeFieldENS1_9PackFieldENS1_9ReductionEEE9tableDtorE, i64 0, i64 %13
  %15 = load ptr, ptr %14, align 8, !tbaa !15
  %16 = getelementptr inbounds nuw i8, ptr %.05.i.i.i.i.i, i64 8
  invoke void %15(ptr noundef nonnull %16)
          to label %_ZSt8_DestroyIN4Luau7VariantIJNS0_8TypePath8PropertyENS2_5IndexENS2_9TypeFieldENS2_9PackFieldENS2_9ReductionEEEEEvPT_.exit.i.i.i.i.i unwind label %17

17:                                               ; preds = %.lr.ph.i.i.i.i.i
  %18 = landingpad { ptr, i32 }
          catch ptr null
  %19 = extractvalue { ptr, i32 } %18, 0
  call void @__clang_call_terminate(ptr %19) #27
  unreachable

_ZSt8_DestroyIN4Luau7VariantIJNS0_8TypePath8PropertyENS2_5IndexENS2_9TypeFieldENS2_9PackFieldENS2_9ReductionEEEEEvPT_.exit.i.i.i.i.i: ; preds = %.lr.ph.i.i.i.i.i
  %20 = getelementptr inbounds nuw i8, ptr %.05.i.i.i.i.i, i64 48
  %.not.i.i.i.i.i = icmp eq ptr %20, %11
  br i1 %.not.i.i.i.i.i, label %_ZSt8_DestroyIPN4Luau7VariantIJNS0_8TypePath8PropertyENS2_5IndexENS2_9TypeFieldENS2_9PackFieldENS2_9ReductionEEEES8_EvT_SA_RSaIT0_E.exitthread-pre-split.i.i, label %.lr.ph.i.i.i.i.i, !llvm.loop !16

_ZSt8_DestroyIPN4Luau7VariantIJNS0_8TypePath8PropertyENS2_5IndexENS2_9TypeFieldENS2_9PackFieldENS2_9ReductionEEEES8_EvT_SA_RSaIT0_E.exitthread-pre-split.i.i: ; preds = %_ZSt8_DestroyIN4Luau7VariantIJNS0_8TypePath8PropertyENS2_5IndexENS2_9TypeFieldENS2_9PackFieldENS2_9ReductionEEEEEvPT_.exit.i.i.i.i.i
  %.pr.i.i = load ptr, ptr %4, align 8, !tbaa !8
  br label %_ZSt8_DestroyIPN4Luau7VariantIJNS0_8TypePath8PropertyENS2_5IndexENS2_9TypeFieldENS2_9PackFieldENS2_9ReductionEEEES8_EvT_SA_RSaIT0_E.exit.i.i

_ZSt8_DestroyIPN4Luau7VariantIJNS0_8TypePath8PropertyENS2_5IndexENS2_9TypeFieldENS2_9PackFieldENS2_9ReductionEEEES8_EvT_SA_RSaIT0_E.exit.i.i: ; preds = %_ZSt8_DestroyIPN4Luau7VariantIJNS0_8TypePath8PropertyENS2_5IndexENS2_9TypeFieldENS2_9PackFieldENS2_9ReductionEEEES8_EvT_SA_RSaIT0_E.exitthread-pre-split.i.i, %8
  %21 = phi ptr [ %.pr.i.i, %_ZSt8_DestroyIPN4Luau7VariantIJNS0_8TypePath8PropertyENS2_5IndexENS2_9TypeFieldENS2_9PackFieldENS2_9ReductionEEEES8_EvT_SA_RSaIT0_E.exitthread-pre-split.i.i ], [ %9, %8 ]
  %.not.i.i.i.i = icmp eq ptr %21, null
  br i1 %.not.i.i.i.i, label %_ZN4Luau8TypePath4PathD2Ev.exit, label %22

22:                                               ; preds = %_ZSt8_DestroyIPN4Luau7VariantIJNS0_8TypePath8PropertyENS2_5IndexENS2_9TypeFieldENS2_9PackFieldENS2_9ReductionEEEES8_EvT_SA_RSaIT0_E.exit.i.i
  %23 = getelementptr inbounds nuw i8, ptr %4, i64 16
  %24 = load ptr, ptr %23, align 8, !tbaa !18
  %25 = ptrtoint ptr %24 to i64
  %26 = ptrtoint ptr %21 to i64
  %27 = sub i64 %25, %26
  call void @_ZdlPvm(ptr noundef nonnull %21, i64 noundef %27) #28
  br label %_ZN4Luau8TypePath4PathD2Ev.exit

_ZN4Luau8TypePath4PathD2Ev.exit:                  ; preds = %_ZSt8_DestroyIPN4Luau7VariantIJNS0_8TypePath8PropertyENS2_5IndexENS2_9TypeFieldENS2_9PackFieldENS2_9ReductionEEEES8_EvT_SA_RSaIT0_E.exit.i.i, %22
  %28 = load ptr, ptr %3, align 8, !tbaa !8
  %29 = getelementptr inbounds nuw i8, ptr %3, i64 8
  %30 = load ptr, ptr %29, align 8, !tbaa !12
  %.not4.i.i.i.i.i4 = icmp eq ptr %28, %30
  br i1 %.not4.i.i.i.i.i4, label %_ZSt8_DestroyIPN4Luau7VariantIJNS0_8TypePath8PropertyENS2_5IndexENS2_9TypeFieldENS2_9PackFieldENS2_9ReductionEEEES8_EvT_SA_RSaIT0_E.exit.i.i11, label %.lr.ph.i.i.i.i.i5

.lr.ph.i.i.i.i.i5:                                ; preds = %_ZN4Luau8TypePath4PathD2Ev.exit, %_ZSt8_DestroyIN4Luau7VariantIJNS0_8TypePath8PropertyENS2_5IndexENS2_9TypeFieldENS2_9PackFieldENS2_9ReductionEEEEEvPT_.exit.i.i.i.i.i7
  %.05.i.i.i.i.i6 = phi ptr [ %39, %_ZSt8_DestroyIN4Luau7VariantIJNS0_8TypePath8PropertyENS2_5IndexENS2_9TypeFieldENS2_9PackFieldENS2_9ReductionEEEEEvPT_.exit.i.i.i.i.i7 ], [ %28, %_ZN4Luau8TypePath4PathD2Ev.exit ]
  %31 = load i32, ptr %.05.i.i.i.i.i6, align 8, !tbaa !13
  %32 = sext i32 %31 to i64
  %33 = getelementptr inbounds [5 x ptr], ptr @_ZN4Luau7VariantIJNS_8TypePath8PropertyENS1_5IndexENS1_9TypeFieldENS1_9PackFieldENS1_9ReductionEEE9tableDtorE, i64 0, i64 %32
  %34 = load ptr, ptr %33, align 8, !tbaa !15
  %35 = getelementptr inbounds nuw i8, ptr %.05.i.i.i.i.i6, i64 8
  invoke void %34(ptr noundef nonnull %35)
          to label %_ZSt8_DestroyIN4Luau7VariantIJNS0_8TypePath8PropertyENS2_5IndexENS2_9TypeFieldENS2_9PackFieldENS2_9ReductionEEEEEvPT_.exit.i.i.i.i.i7 unwind label %36

36:                                               ; preds = %.lr.ph.i.i.i.i.i5
  %37 = landingpad { ptr, i32 }
          catch ptr null
  %38 = extractvalue { ptr, i32 } %37, 0
  call void @__clang_call_terminate(ptr %38) #27
  unreachable

_ZSt8_DestroyIN4Luau7VariantIJNS0_8TypePath8PropertyENS2_5IndexENS2_9TypeFieldENS2_9PackFieldENS2_9ReductionEEEEEvPT_.exit.i.i.i.i.i7: ; preds = %.lr.ph.i.i.i.i.i5
  %39 = getelementptr inbounds nuw i8, ptr %.05.i.i.i.i.i6, i64 48
  %.not.i.i.i.i.i8 = icmp eq ptr %39, %30
  br i1 %.not.i.i.i.i.i8, label %_ZSt8_DestroyIPN4Luau7VariantIJNS0_8TypePath8PropertyENS2_5IndexENS2_9TypeFieldENS2_9PackFieldENS2_9ReductionEEEES8_EvT_SA_RSaIT0_E.exitthread-pre-split.i.i9, label %.lr.ph.i.i.i.i.i5, !llvm.loop !16

_ZSt8_DestroyIPN4Luau7VariantIJNS0_8TypePath8PropertyENS2_5IndexENS2_9TypeFieldENS2_9PackFieldENS2_9ReductionEEEES8_EvT_SA_RSaIT0_E.exitthread-pre-split.i.i9: ; preds = %_ZSt8_DestroyIN4Luau7VariantIJNS0_8TypePath8PropertyENS2_5IndexENS2_9TypeFieldENS2_9PackFieldENS2_9ReductionEEEEEvPT_.exit.i.i.i.i.i7
  %.pr.i.i10 = load ptr, ptr %3, align 8, !tbaa !8
  br label %_ZSt8_DestroyIPN4Luau7VariantIJNS0_8TypePath8PropertyENS2_5IndexENS2_9TypeFieldENS2_9PackFieldENS2_9ReductionEEEES8_EvT_SA_RSaIT0_E.exit.i.i11

_ZSt8_DestroyIPN4Luau7VariantIJNS0_8TypePath8PropertyENS2_5IndexENS2_9TypeFieldENS2_9PackFieldENS2_9ReductionEEEES8_EvT_SA_RSaIT0_E.exit.i.i11: ; preds = %_ZSt8_DestroyIPN4Luau7VariantIJNS0_8TypePath8PropertyENS2_5IndexENS2_9TypeFieldENS2_9PackFieldENS2_9ReductionEEEES8_EvT_SA_RSaIT0_E.exitthread-pre-split.i.i9, %_ZN4Luau8TypePath4PathD2Ev.exit
  %40 = phi ptr [ %.pr.i.i10, %_ZSt8_DestroyIPN4Luau7VariantIJNS0_8TypePath8PropertyENS2_5IndexENS2_9TypeFieldENS2_9PackFieldENS2_9ReductionEEEES8_EvT_SA_RSaIT0_E.exitthread-pre-split.i.i9 ], [ %28, %_ZN4Luau8TypePath4PathD2Ev.exit ]
  %.not.i.i.i.i12 = icmp eq ptr %40, null
  br i1 %.not.i.i.i.i12, label %_ZN4Luau8TypePath4PathD2Ev.exit13, label %41

41:                                               ; preds = %_ZSt8_DestroyIPN4Luau7VariantIJNS0_8TypePath8PropertyENS2_5IndexENS2_9TypeFieldENS2_9PackFieldENS2_9ReductionEEEES8_EvT_SA_RSaIT0_E.exit.i.i11
  %42 = getelementptr inbounds nuw i8, ptr %3, i64 16
  %43 = load ptr, ptr %42, align 8, !tbaa !18
  %44 = ptrtoint ptr %43 to i64
  %45 = ptrtoint ptr %40 to i64
  %46 = sub i64 %44, %45
  call void @_ZdlPvm(ptr noundef nonnull %40, i64 noundef %46) #28
  br label %_ZN4Luau8TypePath4PathD2Ev.exit13

_ZN4Luau8TypePath4PathD2Ev.exit13:                ; preds = %_ZSt8_DestroyIPN4Luau7VariantIJNS0_8TypePath8PropertyENS2_5IndexENS2_9TypeFieldENS2_9PackFieldENS2_9ReductionEEEES8_EvT_SA_RSaIT0_E.exit.i.i11, %41
  ret ptr %0

47:                                               ; preds = %6, %2
  %48 = landingpad { ptr, i32 }
          cleanup
  br label %51

49:                                               ; preds = %_ZN4Luau8TypePath4PathC2ERKS1_.exit
  %50 = landingpad { ptr, i32 }
          cleanup
  call void @_ZN4Luau8TypePath4PathD2Ev(ptr noundef nonnull align 8 dereferenceable(24) %4) #29
  br label %51

51:                                               ; preds = %49, %47
  %.pn = phi { ptr, i32 } [ %50, %49 ], [ %48, %47 ]
  call void @_ZN4Luau8TypePath4PathD2Ev(ptr noundef nonnull align 8 dereferenceable(24) %3) #29
  resume { ptr, i32 } %.pn
}